; Function Attrs: mustprogress nofree norecurse nosync nounwind willreturn memory(argmem: write) uwtable
define void @_ZN4cvc56parser25GetLearnedLiteralsCommandC2ENS_5modes14LearnedLitTypeE(ptr noundef nonnull writeonly align 8 captures(none) dereferenceable(44) initializes((0, 44)) %0, i32 noundef %1) unnamed_addr #7 align 2 {
  %3 = getelementptr inbounds nuw i8, ptr %0, i64 8
  store ptr null, ptr %3, align 8, !tbaa !48
  store ptr getelementptr inbounds nuw inrange(-16, 56) (i8, ptr @_ZTVN4cvc56parser25GetLearnedLiteralsCommandE, i64 16), ptr %0, align 8, !tbaa !6
  %4 = getelementptr inbounds nuw i8, ptr %0, i64 16
  tail call void @llvm.memset.p0.i64(ptr noundef nonnull align 8 dereferenceable(24) %4, i8 0, i64 24, i1 false)
  %5 = getelementptr inbounds nuw i8, ptr %0, i64 40
  store i32 %1, ptr %5, align 8, !tbaa !384
  ret void
}